; Function Attrs: mustprogress nounwind uwtable
define internal fastcc void @_ZN3ue212_GLOBAL__N_113ExclusiveInfoD2Ev(ptr noundef nonnull align 8 dereferenceable(52) %this) unnamed_addr #8 align 2 personality ptr @__gxx_personality_v0 {
entry:
  %_M_parent.i.i.i.i = getelementptr inbounds i8, ptr %this, i64 16
  %0 = load ptr, ptr %_M_parent.i.i.i.i, align 8
  invoke void @_ZNSt8_Rb_treeIjSt4pairIKjjESt10_Select1stIS2_ESt4lessIjESaIS2_EE8_M_eraseEPSt13_Rb_tree_nodeIS2_E(ptr noundef nonnull align 8 dereferenceable(48) %this, ptr noundef %0)
          to label %_ZNSt3mapIjjSt4lessIjESaISt4pairIKjjEEED2Ev.exit unwind label %terminate.lpad.i.i

terminate.lpad.i.i:                               ; preds = %entry
  %1 = landingpad { ptr, i32 }
          catch ptr null
  %2 = extractvalue { ptr, i32 } %1, 0
  tail call void @__clang_call_terminate(ptr %2) #27
  unreachable

_ZNSt3mapIjjSt4lessIjESaISt4pairIKjjEEED2Ev.exit: ; preds = %entry
  ret void
}